target datalayout = "e-m:e-p270:32:32-p271:32:32-p272:64:64-i64:64-i128:128-f80:128-n8:16:32:64-S128"
target triple = "x86_64-pc-linux-gnu"

; Function Attrs: nounwind uwtable
define i32 @cl_verify_signature_x509(ptr noundef %0, ptr noundef %1, ptr noundef %2, i32 noundef %3, ptr noundef %4, i64 noundef %5, i32 noundef %6) #0 {
  %8 = alloca i32, align 4
  %9 = alloca ptr, align 8
  %10 = alloca ptr, align 8
  %11 = alloca ptr, align 8
  %12 = alloca i32, align 4
  %13 = alloca ptr, align 8
  %14 = alloca i64, align 8
  %15 = alloca i32, align 4
  %16 = alloca ptr, align 8
  %17 = alloca i32, align 4
  %18 = alloca i32, align 4
  store ptr %0, ptr %9, align 8, !tbaa !26
  store ptr %1, ptr %10, align 8, !tbaa !3
  store ptr %2, ptr %11, align 8, !tbaa !3
  store i32 %3, ptr %12, align 4, !tbaa !13
  store ptr %4, ptr %13, align 8, !tbaa !3
  store i64 %5, ptr %14, align 8, !tbaa !9
  store i32 %6, ptr %15, align 4, !tbaa !13
  call void @llvm.lifetime.start.p0(i64 8, ptr %16) #8
  call void @llvm.lifetime.start.p0(i64 4, ptr %17) #8
  %19 = load ptr, ptr %9, align 8, !tbaa !26
  %20 = call ptr @X509_get_pubkey(ptr noundef %19)
  store ptr %20, ptr %16, align 8, !tbaa !24
  %21 = load ptr, ptr %16, align 8, !tbaa !24
  %22 = icmp ne ptr %21, null
  br i1 %22, label %24, label %23

23:                                               ; preds = %7
  store i32 -1, ptr %8, align 4
  store i32 1, ptr %18, align 4
  br label %35

24:                                               ; preds = %7
  %25 = load ptr, ptr %16, align 8, !tbaa !24
  %26 = load ptr, ptr %10, align 8, !tbaa !3
  %27 = load ptr, ptr %11, align 8, !tbaa !3
  %28 = load i32, ptr %12, align 4, !tbaa !13
  %29 = load ptr, ptr %13, align 8, !tbaa !3
  %30 = load i64, ptr %14, align 8, !tbaa !9
  %31 = load i32, ptr %15, align 4, !tbaa !13
  %32 = call i32 @cl_verify_signature(ptr noundef %25, ptr noundef %26, ptr noundef %27, i32 noundef %28, ptr noundef %29, i64 noundef %30, i32 noundef %31)
  store i32 %32, ptr %17, align 4, !tbaa !13
  %33 = load ptr, ptr %16, align 8, !tbaa !24
  call void @EVP_PKEY_free(ptr noundef %33)
  %34 = load i32, ptr %17, align 4, !tbaa !13
  store i32 %34, ptr %8, align 4
  store i32 1, ptr %18, align 4
  br label %35

35:                                               ; preds = %24, %23
  call void @llvm.lifetime.end.p0(i64 4, ptr %17) #8
  call void @llvm.lifetime.end.p0(i64 8, ptr %16) #8
  %36 = load i32, ptr %8, align 4
  ret i32 %36
}