; Function Attrs: nounwind uwtable
define range(i32 -1, 1) i32 @cl_verify_signature_x509(ptr noundef %0, ptr noundef %1, ptr noundef %2, i32 noundef %3, ptr noundef %4, i64 noundef %5, i32 noundef %6) local_unnamed_addr #1 {
  %8 = tail call ptr @X509_get_pubkey(ptr noundef %0) #12
  %.not = icmp eq ptr %8, null
  br i1 %.not, label %11, label %9

9:                                                ; preds = %7
  %10 = tail call i32 @cl_verify_signature(ptr noundef nonnull %8, ptr noundef %1, ptr noundef %2, i32 noundef %3, ptr noundef %4, i64 noundef %5, i32 noundef %6)
  tail call void @EVP_PKEY_free(ptr noundef nonnull %8) #12
  br label %11

11:                                               ; preds = %7, %9
  %.0 = phi i32 [ %10, %9 ], [ -1, %7 ]
  ret i32 %.0
}